; ModuleID = 'source-C-CXX/11/475.cpp'
source_filename = "source-C-CXX/11/475.cpp"
target datalayout = "e-m:e-p270:32:32-p271:32:32-p272:64:64-i64:64-f80:128-n8:16:32:64-S128"
target triple = "x86_64-pc-linux-gnu"

%"class.std::ios_base::Init" = type { i8 }
%"class.std::basic_istream" = type { i32 (...)**, i64, %"class.std::basic_ios" }
%"class.std::basic_ios" = type { %"class.std::ios_base", %"class.std::basic_ostream"*, i8, i8, %"class.std::basic_streambuf"*, %"class.std::ctype"*, %"class.std::num_put"*, %"class.std::num_get"* }
%"class.std::ios_base" = type { i32 (...)**, i64, i64, i32, i32, i32, %"struct.std::ios_base::_Callback_list"*, %"struct.std::ios_base::_Words", [8 x %"struct.std::ios_base::_Words"], i32, %"struct.std::ios_base::_Words"*, %"class.std::locale" }
%"struct.std::ios_base::_Callback_list" = type { %"struct.std::ios_base::_Callback_list"*, void (i32, %"class.std::ios_base"*, i32)*, i32, i32 }
%"struct.std::ios_base::_Words" = type { i8*, i64 }
%"class.std::locale" = type { %"class.std::locale::_Impl"* }
%"class.std::locale::_Impl" = type { i32, %"class.std::locale::facet"**, i64, %"class.std::locale::facet"**, i8** }
%"class.std::locale::facet" = type <{ i32 (...)**, i32, [4 x i8] }>
%"class.std::basic_ostream" = type { i32 (...)**, %"class.std::basic_ios" }
%"class.std::basic_streambuf" = type { i32 (...)**, i8*, i8*, i8*, i8*, i8*, i8*, %"class.std::locale" }
%"class.std::ctype" = type <{ %"class.std::locale::facet.base", [4 x i8], %struct.__locale_struct*, i8, [7 x i8], i32*, i32*, i16*, i8, [256 x i8], [256 x i8], i8, [6 x i8] }>
%"class.std::locale::facet.base" = type <{ i32 (...)**, i32 }>
%struct.__locale_struct = type { [13 x %struct.__locale_data*], i16*, i32*, i32*, [13 x i8*] }
%struct.__locale_data = type opaque
%"class.std::num_put" = type { %"class.std::locale::facet.base", [4 x i8] }
%"class.std::num_get" = type { %"class.std::locale::facet.base", [4 x i8] }

@_ZStL8__ioinit = internal global %"class.std::ios_base::Init" zeroinitializer, align 1
@__dso_handle = external hidden global i8
@_ZSt3cin = external global %"class.std::basic_istream", align 8
@_ZSt4cout = external global %"class.std::basic_ostream", align 8
@llvm.global_ctors = appending global [1 x { i32, void ()*, i8* }] [{ i32, void ()*, i8* } { i32 65535, void ()* @_GLOBAL__sub_I_475.cpp, i8* null }]

declare void @_ZNSt8ios_base4InitC1Ev(%"class.std::ios_base::Init"* nonnull align 1 dereferenceable(1)) unnamed_addr #0

; Function Attrs: nounwind
declare void @_ZNSt8ios_base4InitD1Ev(%"class.std::ios_base::Init"* nonnull align 1 dereferenceable(1)) unnamed_addr #1

; Function Attrs: nofree nounwind
declare i32 @__cxa_atexit(void (i8*)*, i8*, i8*) local_unnamed_addr #2

; Function Attrs: mustprogress norecurse sspstrong uwtable
define dso_local i32 @main() local_unnamed_addr #3 {
  %1 = alloca [16 x i32], align 16
  %2 = bitcast [16 x i32]* %1 to i8*
  call void @llvm.lifetime.start.p0i8(i64 64, i8* nonnull %2) #8
  %3 = getelementptr inbounds [16 x i32], [16 x i32]* %1, i64 0, i64 0
  br label %4

4:                                                ; preds = %119, %0
  %5 = call nonnull align 8 dereferenceable(16) %"class.std::basic_istream"* @_ZNSirsERi(%"class.std::basic_istream"* nonnull align 8 dereferenceable(16) @_ZSt3cin, i32* nonnull align 4 dereferenceable(4) %3)
  %6 = load i32, i32* %3, align 16, !tbaa !5
  switch i32 %6, label %7 [
    i32 0, label %90
    i32 -1, label %123
  ]

7:                                                ; preds = %4, %18
  %8 = phi i32 [ %11, %18 ], [ 0, %4 ]
  %9 = phi i64 [ %10, %18 ], [ 0, %4 ]
  %10 = add nuw i64 %9, 1
  %11 = add nuw nsw i32 %8, 1
  %12 = getelementptr inbounds [16 x i32], [16 x i32]* %1, i64 0, i64 %10
  %13 = call nonnull align 8 dereferenceable(16) %"class.std::basic_istream"* @_ZNSirsERi(%"class.std::basic_istream"* nonnull align 8 dereferenceable(16) @_ZSt3cin, i32* nonnull align 4 dereferenceable(4) %12)
  %14 = load i32, i32* %12, align 4, !tbaa !5
  %15 = icmp eq i32 %14, 0
  %16 = load i32, i32* %3, align 16, !tbaa !5
  %17 = icmp eq i32 %16, -1
  br i1 %15, label %19, label %18, !llvm.loop !9

18:                                               ; preds = %7
  br i1 %17, label %123, label %7

19:                                               ; preds = %7
  br i1 %17, label %123, label %20

20:                                               ; preds = %19
  %21 = zext i32 %11 to i64
  %22 = icmp ult i32 %8, 7
  %23 = and i64 %21, 2147483640
  %24 = icmp eq i64 %23, %21
  br label %25

25:                                               ; preds = %87, %20
  %26 = phi i32 [ %16, %20 ], [ %89, %87 ]
  %27 = phi i64 [ 0, %20 ], [ %85, %87 ]
  %28 = phi i32 [ 0, %20 ], [ %84, %87 ]
  %29 = shl nsw i32 %26, 1
  br i1 %22, label %67, label %30

30:                                               ; preds = %25
  %31 = insertelement <4 x i32> <i32 poison, i32 0, i32 0, i32 0>, i32 %28, i32 0
  %32 = insertelement <4 x i32> poison, i32 %26, i32 0
  %33 = shufflevector <4 x i32> %32, <4 x i32> poison, <4 x i32> zeroinitializer
  %34 = insertelement <4 x i32> poison, i32 %26, i32 0
  %35 = shufflevector <4 x i32> %34, <4 x i32> poison, <4 x i32> zeroinitializer
  %36 = insertelement <4 x i32> poison, i32 %29, i32 0
  %37 = shufflevector <4 x i32> %36, <4 x i32> poison, <4 x i32> zeroinitializer
  %38 = insertelement <4 x i32> poison, i32 %29, i32 0
  %39 = shufflevector <4 x i32> %38, <4 x i32> poison, <4 x i32> zeroinitializer
  br label %40

40:                                               ; preds = %40, %30
  %41 = phi i64 [ 0, %30 ], [ %62, %40 ]
  %42 = phi <4 x i32> [ %31, %30 ], [ %60, %40 ]
  %43 = phi <4 x i32> [ zeroinitializer, %30 ], [ %61, %40 ]
  %44 = getelementptr inbounds [16 x i32], [16 x i32]* %1, i64 0, i64 %41
  %45 = bitcast i32* %44 to <4 x i32>*
  %46 = load <4 x i32>, <4 x i32>* %45, align 16, !tbaa !5
  %47 = getelementptr inbounds i32, i32* %44, i64 4
  %48 = bitcast i32* %47 to <4 x i32>*
  %49 = load <4 x i32>, <4 x i32>* %48, align 16, !tbaa !5
  %50 = shl nsw <4 x i32> %46, <i32 1, i32 1, i32 1, i32 1>
  %51 = shl nsw <4 x i32> %49, <i32 1, i32 1, i32 1, i32 1>
  %52 = icmp eq <4 x i32> %33, %50
  %53 = icmp eq <4 x i32> %35, %51
  %54 = icmp eq <4 x i32> %46, %37
  %55 = icmp eq <4 x i32> %49, %39
  %56 = select <4 x i1> %52, <4 x i1> <i1 true, i1 true, i1 true, i1 true>, <4 x i1> %54
  %57 = select <4 x i1> %53, <4 x i1> <i1 true, i1 true, i1 true, i1 true>, <4 x i1> %55
  %58 = zext <4 x i1> %56 to <4 x i32>
  %59 = zext <4 x i1> %57 to <4 x i32>
  %60 = add <4 x i32> %42, %58
  %61 = add <4 x i32> %43, %59
  %62 = add nuw i64 %41, 8
  %63 = icmp eq i64 %62, %23
  br i1 %63, label %64, label %40, !llvm.loop !11

64:                                               ; preds = %40
  %65 = add <4 x i32> %61, %60
  %66 = call i32 @llvm.vector.reduce.add.v4i32(<4 x i32> %65)
  br i1 %24, label %83, label %67

67:                                               ; preds = %25, %64
  %68 = phi i64 [ 0, %25 ], [ %23, %64 ]
  %69 = phi i32 [ %28, %25 ], [ %66, %64 ]
  br label %70

70:                                               ; preds = %67, %70
  %71 = phi i64 [ %81, %70 ], [ %68, %67 ]
  %72 = phi i32 [ %80, %70 ], [ %69, %67 ]
  %73 = getelementptr inbounds [16 x i32], [16 x i32]* %1, i64 0, i64 %71
  %74 = load i32, i32* %73, align 4, !tbaa !5
  %75 = shl nsw i32 %74, 1
  %76 = icmp eq i32 %26, %75
  %77 = icmp eq i32 %74, %29
  %78 = select i1 %76, i1 true, i1 %77
  %79 = zext i1 %78 to i32
  %80 = add nsw i32 %72, %79
  %81 = add nuw nsw i64 %71, 1
  %82 = icmp eq i64 %81, %21
  br i1 %82, label %83, label %70, !llvm.loop !13

83:                                               ; preds = %70, %64
  %84 = phi i32 [ %66, %64 ], [ %80, %70 ]
  %85 = add nuw nsw i64 %27, 1
  %86 = icmp eq i64 %85, %21
  br i1 %86, label %90, label %87, !llvm.loop !15

87:                                               ; preds = %83
  %88 = getelementptr inbounds [16 x i32], [16 x i32]* %1, i64 0, i64 %85
  %89 = load i32, i32* %88, align 4, !tbaa !5
  br label %25

90:                                               ; preds = %83, %4
  %91 = phi i32 [ %6, %4 ], [ %84, %83 ]
  %92 = sdiv i32 %91, 2
  %93 = call nonnull align 8 dereferenceable(8) %"class.std::basic_ostream"* @_ZNSolsEi(%"class.std::basic_ostream"* nonnull align 8 dereferenceable(8) @_ZSt4cout, i32 %92)
  %94 = bitcast %"class.std::basic_ostream"* %93 to i8**
  %95 = load i8*, i8** %94, align 8, !tbaa !16
  %96 = getelementptr i8, i8* %95, i64 -24
  %97 = bitcast i8* %96 to i64*
  %98 = load i64, i64* %97, align 8
  %99 = bitcast %"class.std::basic_ostream"* %93 to i8*
  %100 = add nsw i64 %98, 240
  %101 = getelementptr inbounds i8, i8* %99, i64 %100
  %102 = bitcast i8* %101 to %"class.std::ctype"**
  %103 = load %"class.std::ctype"*, %"class.std::ctype"** %102, align 8, !tbaa !18
  %104 = icmp eq %"class.std::ctype"* %103, null
  br i1 %104, label %105, label %106

105:                                              ; preds = %90
  call void @_ZSt16__throw_bad_castv() #9
  unreachable

106:                                              ; preds = %90
  %107 = getelementptr inbounds %"class.std::ctype", %"class.std::ctype"* %103, i64 0, i32 8
  %108 = load i8, i8* %107, align 8, !tbaa !22
  %109 = icmp eq i8 %108, 0
  br i1 %109, label %113, label %110

110:                                              ; preds = %106
  %111 = getelementptr inbounds %"class.std::ctype", %"class.std::ctype"* %103, i64 0, i32 9, i64 10
  %112 = load i8, i8* %111, align 1, !tbaa !24
  br label %119

113:                                              ; preds = %106
  call void @_ZNKSt5ctypeIcE13_M_widen_initEv(%"class.std::ctype"* nonnull align 8 dereferenceable(570) %103)
  %114 = bitcast %"class.std::ctype"* %103 to i8 (%"class.std::ctype"*, i8)***
  %115 = load i8 (%"class.std::ctype"*, i8)**, i8 (%"class.std::ctype"*, i8)*** %114, align 8, !tbaa !16
  %116 = getelementptr inbounds i8 (%"class.std::ctype"*, i8)*, i8 (%"class.std::ctype"*, i8)** %115, i64 6
  %117 = load i8 (%"class.std::ctype"*, i8)*, i8 (%"class.std::ctype"*, i8)** %116, align 8
  %118 = call signext i8 %117(%"class.std::ctype"* nonnull align 8 dereferenceable(570) %103, i8 signext 10)
  br label %119

119:                                              ; preds = %110, %113
  %120 = phi i8 [ %112, %110 ], [ %118, %113 ]
  %121 = call nonnull align 8 dereferenceable(8) %"class.std::basic_ostream"* @_ZNSo3putEc(%"class.std::basic_ostream"* nonnull align 8 dereferenceable(8) %93, i8 signext %120)
  %122 = call nonnull align 8 dereferenceable(8) %"class.std::basic_ostream"* @_ZNSo5flushEv(%"class.std::basic_ostream"* nonnull align 8 dereferenceable(8) %121)
  br label %4, !llvm.loop !25

123:                                              ; preds = %19, %4, %18
  call void @llvm.lifetime.end.p0i8(i64 64, i8* nonnull %2) #8
  ret i32 0
}

; Function Attrs: argmemonly mustprogress nofree nosync nounwind willreturn
declare void @llvm.lifetime.start.p0i8(i64 immarg, i8* nocapture) #4

declare nonnull align 8 dereferenceable(16) %"class.std::basic_istream"* @_ZNSirsERi(%"class.std::basic_istream"* nonnull align 8 dereferenceable(16), i32* nonnull align 4 dereferenceable(4)) local_unnamed_addr #0

declare nonnull align 8 dereferenceable(8) %"class.std::basic_ostream"* @_ZNSolsEi(%"class.std::basic_ostream"* nonnull align 8 dereferenceable(8), i32) local_unnamed_addr #0

; Function Attrs: argmemonly mustprogress nofree nosync nounwind willreturn
declare void @llvm.lifetime.end.p0i8(i64 immarg, i8* nocapture) #4

declare nonnull align 8 dereferenceable(8) %"class.std::basic_ostream"* @_ZNSo3putEc(%"class.std::basic_ostream"* nonnull align 8 dereferenceable(8), i8 signext) local_unnamed_addr #0

declare nonnull align 8 dereferenceable(8) %"class.std::basic_ostream"* @_ZNSo5flushEv(%"class.std::basic_ostream"* nonnull align 8 dereferenceable(8)) local_unnamed_addr #0

; Function Attrs: noreturn
declare void @_ZSt16__throw_bad_castv() local_unnamed_addr #5

declare void @_ZNKSt5ctypeIcE13_M_widen_initEv(%"class.std::ctype"* nonnull align 8 dereferenceable(570)) local_unnamed_addr #0

; Function Attrs: sspstrong uwtable
define internal void @_GLOBAL__sub_I_475.cpp() #6 section ".text.startup" {
  tail call void @_ZNSt8ios_base4InitC1Ev(%"class.std::ios_base::Init"* nonnull align 1 dereferenceable(1) @_ZStL8__ioinit)
  %1 = tail call i32 @__cxa_atexit(void (i8*)* bitcast (void (%"class.std::ios_base::Init"*)* @_ZNSt8ios_base4InitD1Ev to void (i8*)*), i8* getelementptr inbounds (%"class.std::ios_base::Init", %"class.std::ios_base::Init"* @_ZStL8__ioinit, i64 0, i32 0), i8* nonnull @__dso_handle) #8
  ret void
}

; Function Attrs: nofree nosync nounwind readnone willreturn
declare i32 @llvm.vector.reduce.add.v4i32(<4 x i32>) #7


!llvm.module.flags = !{!0, !1, !2, !3}
!llvm.ident = !{!4}

!0 = !{i32 1, !"wchar_size", i32 4}
!1 = !{i32 7, !"PIC Level", i32 2}
!2 = !{i32 7, !"PIE Level", i32 2}
!3 = !{i32 7, !"uwtable", i32 1}
!4 = !{!"clang version 13.0.0"}
!5 = !{!6, !6, i64 0}
!6 = !{!"int", !7, i64 0}
!7 = !{!"omnipotent char", !8, i64 0}
!8 = !{!"Simple C++ TBAA"}
!9 = distinct !{!9, !10}
!10 = !{!"llvm.loop.mustprogress"}
!11 = distinct !{!11, !10, !12}
!12 = !{!"llvm.loop.isvectorized", i32 1}
!13 = distinct !{!13, !10, !14, !12}
!14 = !{!"llvm.loop.unroll.runtime.disable"}
!15 = distinct !{!15, !10}
!16 = !{!17, !17, i64 0}
!17 = !{!"vtable pointer", !8, i64 0}
!18 = !{!19, !20, i64 240}
!19 = !{!"_ZTSSt9basic_iosIcSt11char_traitsIcEE", !20, i64 216, !7, i64 224, !21, i64 225, !20, i64 232, !20, i64 240, !20, i64 248, !20, i64 256}
!20 = !{!"any pointer", !7, i64 0}
!21 = !{!"bool", !7, i64 0}
!22 = !{!23, !7, i64 56}
!23 = !{!"_ZTSSt5ctypeIcE", !20, i64 16, !21, i64 24, !20, i64 32, !20, i64 40, !20, i64 48, !7, i64 56, !7, i64 57, !7, i64 313, !7, i64 569}
!24 = !{!7, !7, i64 0}
!25 = distinct !{!25, !10}
